target datalayout = "e-m:e-p270:32:32-p271:32:32-p272:64:64-i64:64-i128:128-f80:128-n8:16:32:64-S128"
target triple = "x86_64-pc-linux-gnu"

%struct.H5D_layout_ops_t = type { ptr, ptr, ptr, ptr, ptr, ptr, ptr, ptr, ptr, ptr, ptr, ptr, ptr }
%struct.H5D_chunk_ops_t = type { i8, ptr, ptr, ptr, ptr, ptr, ptr, ptr, ptr, ptr, ptr, ptr, ptr, ptr, ptr, ptr, ptr, ptr, ptr, ptr }
%struct.H5D_t = type { %struct.H5O_loc_t, %struct.H5G_name_t, ptr }
%struct.H5O_loc_t = type { ptr, i64, i8 }
%struct.H5G_name_t = type { ptr, ptr, i32 }
%struct.H5D_shared_t = type { i64, i8, i64, ptr, ptr, i64, i64, %struct.H5D_dcpl_cache_t, %struct.H5O_layout_t, i8, i32, [32 x i64], [32 x i64], [32 x i64], %struct.anon.6, %struct.H5D_append_flush_t, ptr, ptr }
%struct.H5D_dcpl_cache_t = type { %struct.H5O_fill_t, %struct.H5O_pline_t, %struct.H5O_efl_t }
%struct.H5O_fill_t = type { %struct.H5O_shared_t, i32, ptr, i64, ptr, i32, i32, i8 }
%struct.H5O_shared_t = type { i32, ptr, i32, %union.anon }
%union.anon = type { %struct.H5O_mesg_loc_t }
%struct.H5O_mesg_loc_t = type { i32, i64 }
%struct.H5O_pline_t = type { %struct.H5O_shared_t, i32, i64, i64, ptr }
%struct.H5O_efl_t = type { i64, i64, i64, ptr }
%struct.H5O_layout_t = type { i32, i32, ptr, %union.anon.0, %struct.H5O_storage_t }
%union.anon.0 = type { %struct.H5O_layout_chunk_t }
%struct.H5O_layout_chunk_t = type { i32, i8, i32, [33 x i32], i32, i32, i64, i64, [33 x i64], [33 x i64], [33 x i64], [33 x i64], %union.anon.1 }
%union.anon.1 = type { %struct.H5O_layout_chunk_earray_t }
%struct.H5O_layout_chunk_earray_t = type { %struct.anon.2, i32, [33 x i32], [33 x i64], [33 x i64] }
%struct.anon.2 = type { i8, i8, i8, i8, i8 }
%struct.H5O_storage_t = type { i32, %union.anon.4 }
%union.anon.4 = type { %struct.H5O_storage_virtual_t }
%struct.H5O_storage_virtual_t = type { %struct.H5HG_t, i64, ptr, i64, [32 x i64], i32, i64, i64, i64, i8 }
%struct.H5HG_t = type { i64, i64 }
%struct.anon.6 = type { %struct.H5D_rdcdc_t, %struct.H5D_rdcc_t }
%struct.H5D_rdcdc_t = type { ptr, i64, i64, i64, i8 }
%struct.H5D_rdcc_t = type { %struct.anon.7, i64, i64, double, ptr, ptr, ptr, i64, i32, %struct.H5D_chunk_cached_t, ptr, ptr, ptr, ptr, [32 x i64], [32 x i64], [32 x i32] }
%struct.anon.7 = type { i32, i32, i32, i32 }
%struct.H5D_chunk_cached_t = type { i8, [33 x i64], i64, i32, i64, i32 }
%struct.H5D_append_flush_t = type { i32, [32 x i64], ptr, ptr }
%struct.H5O_storage_chunk_t = type { i32, i64, ptr, %union.anon.5 }
%union.anon.5 = type { %struct.H5O_storage_chunk_btree_t }
%struct.H5O_storage_chunk_btree_t = type { i64, ptr }

@H5D_init_g = external global i8, align 1
@H5_libterm_g = external global i8, align 1
@H5D_LOPS_EFL = external constant [1 x %struct.H5D_layout_ops_t], align 16
@H5D_LOPS_CONTIG = external constant [1 x %struct.H5D_layout_ops_t], align 16
@H5D_LOPS_CHUNK = external constant [1 x %struct.H5D_layout_ops_t], align 16
@H5D_COPS_BTREE = external constant [1 x %struct.H5D_chunk_ops_t], align 16
@H5D_COPS_NONE = external constant [1 x %struct.H5D_chunk_ops_t], align 16
@H5D_COPS_SINGLE = external constant [1 x %struct.H5D_chunk_ops_t], align 16
@H5D_COPS_FARRAY = external constant [1 x %struct.H5D_chunk_ops_t], align 16
@H5D_COPS_EARRAY = external constant [1 x %struct.H5D_chunk_ops_t], align 16
@H5D_COPS_BT2 = external constant [1 x %struct.H5D_chunk_ops_t], align 16
@.str = private unnamed_addr constant [103 x i8] c"generated/home/dtcxzyw/WorkSpace/Projects/compilers/llvm-opt-benchmark/bench/hdf5/hdf5/src/H5Dlayout.c\00", align 1
@__func__.H5D__layout_set_io_ops = private unnamed_addr constant [23 x i8] c"H5D__layout_set_io_ops\00", align 1
@H5E_DATASET_g = external global i64, align 8
@H5E_UNSUPPORTED_g = external global i64, align 8
@.str.1 = private unnamed_addr constant [27 x i8] c"unknown chunk index method\00", align 1
@H5D_LOPS_COMPACT = external constant [1 x %struct.H5D_layout_ops_t], align 16
@H5D_LOPS_VIRTUAL = external constant [1 x %struct.H5D_layout_ops_t], align 16
@.str.2 = private unnamed_addr constant [23 x i8] c"unknown storage method\00", align 1

; Function Attrs: nounwind uwtable
define i32 @H5D__layout_set_io_ops(ptr noundef %0) #0 {
  %2 = alloca ptr, align 8
  %3 = alloca i32, align 4
  %4 = alloca i8, align 1
  store ptr %0, ptr %2, align 8, !tbaa !3
  call void @llvm.lifetime.start.p0(i64 4, ptr %3) #5
  store i32 0, ptr %3, align 4, !tbaa !8
  call void @llvm.lifetime.start.p0(i64 1, ptr %4) #5
  store i8 0, ptr %4, align 1, !tbaa !10
  %5 = load i8, ptr @H5D_init_g, align 1, !tbaa !10, !range !12, !noundef !13
  %6 = trunc i8 %5 to i1
  br i1 %6, label %11, label %7

7:                                                ; preds = %1
  %8 = load i8, ptr @H5_libterm_g, align 1, !tbaa !10, !range !12, !noundef !13
  %9 = trunc i8 %8 to i1
  %10 = xor i1 %9, true
  br label %11

11:                                               ; preds = %7, %1
  %12 = phi i1 [ true, %1 ], [ %10, %7 ]
  %13 = xor i1 %12, true
  %14 = xor i1 %13, true
  %15 = zext i1 %14 to i32
  %16 = sext i32 %15 to i64
  %17 = call i64 @llvm.expect.i64(i64 %16, i64 1)
  %18 = icmp ne i64 %17, 0
  br i1 %18, label %19, label %164

19:                                               ; preds = %11
  %20 = load ptr, ptr %2, align 8, !tbaa !3
  %21 = getelementptr inbounds nuw %struct.H5D_t, ptr %20, i32 0, i32 2
  %22 = load ptr, ptr %21, align 8, !tbaa !14
  %23 = getelementptr inbounds nuw %struct.H5D_shared_t, ptr %22, i32 0, i32 8
  %24 = getelementptr inbounds nuw %struct.H5O_layout_t, ptr %23, i32 0, i32 0
  %25 = load i32, ptr %24, align 8, !tbaa !22
  switch i32 %25, label %143 [
    i32 1, label %26
    i32 2, label %48
    i32 0, label %130
    i32 3, label %136
    i32 -1, label %142
    i32 4, label %142
  ]

26:                                               ; preds = %19
  %27 = load ptr, ptr %2, align 8, !tbaa !3
  %28 = getelementptr inbounds nuw %struct.H5D_t, ptr %27, i32 0, i32 2
  %29 = load ptr, ptr %28, align 8, !tbaa !14
  %30 = getelementptr inbounds nuw %struct.H5D_shared_t, ptr %29, i32 0, i32 7
  %31 = getelementptr inbounds nuw %struct.H5D_dcpl_cache_t, ptr %30, i32 0, i32 2
  %32 = getelementptr inbounds nuw %struct.H5O_efl_t, ptr %31, i32 0, i32 2
  %33 = load i64, ptr %32, align 8, !tbaa !48
  %34 = icmp ugt i64 %33, 0
  br i1 %34, label %35, label %41

35:                                               ; preds = %26
  %36 = load ptr, ptr %2, align 8, !tbaa !3
  %37 = getelementptr inbounds nuw %struct.H5D_t, ptr %36, i32 0, i32 2
  %38 = load ptr, ptr %37, align 8, !tbaa !14
  %39 = getelementptr inbounds nuw %struct.H5D_shared_t, ptr %38, i32 0, i32 8
  %40 = getelementptr inbounds nuw %struct.H5O_layout_t, ptr %39, i32 0, i32 2
  store ptr @H5D_LOPS_EFL, ptr %40, align 8, !tbaa !49
  br label %47

41:                                               ; preds = %26
  %42 = load ptr, ptr %2, align 8, !tbaa !3
  %43 = getelementptr inbounds nuw %struct.H5D_t, ptr %42, i32 0, i32 2
  %44 = load ptr, ptr %43, align 8, !tbaa !14
  %45 = getelementptr inbounds nuw %struct.H5D_shared_t, ptr %44, i32 0, i32 8
  %46 = getelementptr inbounds nuw %struct.H5O_layout_t, ptr %45, i32 0, i32 2
  store ptr @H5D_LOPS_CONTIG, ptr %46, align 8, !tbaa !49
  br label %47

47:                                               ; preds = %41, %35
  br label %162

48:                                               ; preds = %19
  %49 = load ptr, ptr %2, align 8, !tbaa !3
  %50 = getelementptr inbounds nuw %struct.H5D_t, ptr %49, i32 0, i32 2
  %51 = load ptr, ptr %50, align 8, !tbaa !14
  %52 = getelementptr inbounds nuw %struct.H5D_shared_t, ptr %51, i32 0, i32 8
  %53 = getelementptr inbounds nuw %struct.H5O_layout_t, ptr %52, i32 0, i32 2
  store ptr @H5D_LOPS_CHUNK, ptr %53, align 8, !tbaa !49
  %54 = load ptr, ptr %2, align 8, !tbaa !3
  %55 = getelementptr inbounds nuw %struct.H5D_t, ptr %54, i32 0, i32 2
  %56 = load ptr, ptr %55, align 8, !tbaa !14
  %57 = getelementptr inbounds nuw %struct.H5D_shared_t, ptr %56, i32 0, i32 8
  %58 = getelementptr inbounds nuw %struct.H5O_layout_t, ptr %57, i32 0, i32 3
  %59 = getelementptr inbounds nuw %struct.H5O_layout_chunk_t, ptr %58, i32 0, i32 0
  %60 = load i32, ptr %59, align 8, !tbaa !50
  switch i32 %60, label %110 [
    i32 0, label %61
    i32 2, label %69
    i32 1, label %77
    i32 3, label %85
    i32 4, label %93
    i32 5, label %101
    i32 6, label %109
  ]

61:                                               ; preds = %48
  %62 = load ptr, ptr %2, align 8, !tbaa !3
  %63 = getelementptr inbounds nuw %struct.H5D_t, ptr %62, i32 0, i32 2
  %64 = load ptr, ptr %63, align 8, !tbaa !14
  %65 = getelementptr inbounds nuw %struct.H5D_shared_t, ptr %64, i32 0, i32 8
  %66 = getelementptr inbounds nuw %struct.H5O_layout_t, ptr %65, i32 0, i32 4
  %67 = getelementptr inbounds nuw %struct.H5O_storage_t, ptr %66, i32 0, i32 1
  %68 = getelementptr inbounds nuw %struct.H5O_storage_chunk_t, ptr %67, i32 0, i32 2
  store ptr @H5D_COPS_BTREE, ptr %68, align 8, !tbaa !50
  br label %129

69:                                               ; preds = %48
  %70 = load ptr, ptr %2, align 8, !tbaa !3
  %71 = getelementptr inbounds nuw %struct.H5D_t, ptr %70, i32 0, i32 2
  %72 = load ptr, ptr %71, align 8, !tbaa !14
  %73 = getelementptr inbounds nuw %struct.H5D_shared_t, ptr %72, i32 0, i32 8
  %74 = getelementptr inbounds nuw %struct.H5O_layout_t, ptr %73, i32 0, i32 4
  %75 = getelementptr inbounds nuw %struct.H5O_storage_t, ptr %74, i32 0, i32 1
  %76 = getelementptr inbounds nuw %struct.H5O_storage_chunk_t, ptr %75, i32 0, i32 2
  store ptr @H5D_COPS_NONE, ptr %76, align 8, !tbaa !50
  br label %129

77:                                               ; preds = %48
  %78 = load ptr, ptr %2, align 8, !tbaa !3
  %79 = getelementptr inbounds nuw %struct.H5D_t, ptr %78, i32 0, i32 2
  %80 = load ptr, ptr %79, align 8, !tbaa !14
  %81 = getelementptr inbounds nuw %struct.H5D_shared_t, ptr %80, i32 0, i32 8
  %82 = getelementptr inbounds nuw %struct.H5O_layout_t, ptr %81, i32 0, i32 4
  %83 = getelementptr inbounds nuw %struct.H5O_storage_t, ptr %82, i32 0, i32 1
  %84 = getelementptr inbounds nuw %struct.H5O_storage_chunk_t, ptr %83, i32 0, i32 2
  store ptr @H5D_COPS_SINGLE, ptr %84, align 8, !tbaa !50
  br label %129

85:                                               ; preds = %48
  %86 = load ptr, ptr %2, align 8, !tbaa !3
  %87 = getelementptr inbounds nuw %struct.H5D_t, ptr %86, i32 0, i32 2
  %88 = load ptr, ptr %87, align 8, !tbaa !14
  %89 = getelementptr inbounds nuw %struct.H5D_shared_t, ptr %88, i32 0, i32 8
  %90 = getelementptr inbounds nuw %struct.H5O_layout_t, ptr %89, i32 0, i32 4
  %91 = getelementptr inbounds nuw %struct.H5O_storage_t, ptr %90, i32 0, i32 1
  %92 = getelementptr inbounds nuw %struct.H5O_storage_chunk_t, ptr %91, i32 0, i32 2
  store ptr @H5D_COPS_FARRAY, ptr %92, align 8, !tbaa !50
  br label %129

93:                                               ; preds = %48
  %94 = load ptr, ptr %2, align 8, !tbaa !3
  %95 = getelementptr inbounds nuw %struct.H5D_t, ptr %94, i32 0, i32 2
  %96 = load ptr, ptr %95, align 8, !tbaa !14
  %97 = getelementptr inbounds nuw %struct.H5D_shared_t, ptr %96, i32 0, i32 8
  %98 = getelementptr inbounds nuw %struct.H5O_layout_t, ptr %97, i32 0, i32 4
  %99 = getelementptr inbounds nuw %struct.H5O_storage_t, ptr %98, i32 0, i32 1
  %100 = getelementptr inbounds nuw %struct.H5O_storage_chunk_t, ptr %99, i32 0, i32 2
  store ptr @H5D_COPS_EARRAY, ptr %100, align 8, !tbaa !50
  br label %129

101:                                              ; preds = %48
  %102 = load ptr, ptr %2, align 8, !tbaa !3
  %103 = getelementptr inbounds nuw %struct.H5D_t, ptr %102, i32 0, i32 2
  %104 = load ptr, ptr %103, align 8, !tbaa !14
  %105 = getelementptr inbounds nuw %struct.H5D_shared_t, ptr %104, i32 0, i32 8
  %106 = getelementptr inbounds nuw %struct.H5O_layout_t, ptr %105, i32 0, i32 4
  %107 = getelementptr inbounds nuw %struct.H5O_storage_t, ptr %106, i32 0, i32 1
  %108 = getelementptr inbounds nuw %struct.H5O_storage_chunk_t, ptr %107, i32 0, i32 2
  store ptr @H5D_COPS_BT2, ptr %108, align 8, !tbaa !50
  br label %129

109:                                              ; preds = %48
  br label %110

110:                                              ; preds = %48, %109
  br label %111

111:                                              ; preds = %110
  br label %112

112:                                              ; preds = %111
  br label %113

113:                                              ; preds = %112
  %114 = load i64, ptr @H5E_DATASET_g, align 8, !tbaa !51
  %115 = load i64, ptr @H5E_UNSUPPORTED_g, align 8, !tbaa !51
  %116 = call i32 (ptr, ptr, i32, i64, i64, ptr, ...) @H5E_printf_stack(ptr noundef @.str, ptr noundef @__func__.H5D__layout_set_io_ops, i32 noundef 124, i64 noundef %114, i64 noundef %115, ptr noundef @.str.1)
  br label %117

117:                                              ; preds = %113
  br label %118

118:                                              ; preds = %117
  store i8 1, ptr %4, align 1, !tbaa !10
  %119 = load i8, ptr %4, align 1, !tbaa !10, !range !12, !noundef !13
  %120 = trunc i8 %119 to i1
  %121 = zext i1 %120 to i8
  store i8 %121, ptr %4, align 1, !tbaa !10
  br label %122

122:                                              ; preds = %118
  br label %123

123:                                              ; preds = %122
  br label %124

124:                                              ; preds = %123
  store i32 -1, ptr %3, align 4, !tbaa !8
  br label %163

125:                                              ; No predecessors!
  br label %126

126:                                              ; preds = %125
  br label %127

127:                                              ; preds = %126
  br label %128

128:                                              ; preds = %127
  br label %129

129:                                              ; preds = %128, %101, %93, %85, %77, %69, %61
  br label %162

130:                                              ; preds = %19
  %131 = load ptr, ptr %2, align 8, !tbaa !3
  %132 = getelementptr inbounds nuw %struct.H5D_t, ptr %131, i32 0, i32 2
  %133 = load ptr, ptr %132, align 8, !tbaa !14
  %134 = getelementptr inbounds nuw %struct.H5D_shared_t, ptr %133, i32 0, i32 8
  %135 = getelementptr inbounds nuw %struct.H5O_layout_t, ptr %134, i32 0, i32 2
  store ptr @H5D_LOPS_COMPACT, ptr %135, align 8, !tbaa !49
  br label %162

136:                                              ; preds = %19
  %137 = load ptr, ptr %2, align 8, !tbaa !3
  %138 = getelementptr inbounds nuw %struct.H5D_t, ptr %137, i32 0, i32 2
  %139 = load ptr, ptr %138, align 8, !tbaa !14
  %140 = getelementptr inbounds nuw %struct.H5D_shared_t, ptr %139, i32 0, i32 8
  %141 = getelementptr inbounds nuw %struct.H5O_layout_t, ptr %140, i32 0, i32 2
  store ptr @H5D_LOPS_VIRTUAL, ptr %141, align 8, !tbaa !49
  br label %162

142:                                              ; preds = %19, %19
  br label %143

143:                                              ; preds = %19, %142
  br label %144

144:                                              ; preds = %143
  br label %145

145:                                              ; preds = %144
  br label %146

146:                                              ; preds = %145
  %147 = load i64, ptr @H5E_DATASET_g, align 8, !tbaa !51
  %148 = load i64, ptr @H5E_UNSUPPORTED_g, align 8, !tbaa !51
  %149 = call i32 (ptr, ptr, i32, i64, i64, ptr, ...) @H5E_printf_stack(ptr noundef @.str, ptr noundef @__func__.H5D__layout_set_io_ops, i32 noundef 139, i64 noundef %147, i64 noundef %148, ptr noundef @.str.2)
  br label %150

150:                                              ; preds = %146
  br label %151

151:                                              ; preds = %150
  store i8 1, ptr %4, align 1, !tbaa !10
  %152 = load i8, ptr %4, align 1, !tbaa !10, !range !12, !noundef !13
  %153 = trunc i8 %152 to i1
  %154 = zext i1 %153 to i8
  store i8 %154, ptr %4, align 1, !tbaa !10
  br label %155

155:                                              ; preds = %151
  br label %156

156:                                              ; preds = %155
  br label %157

157:                                              ; preds = %156
  store i32 -1, ptr %3, align 4, !tbaa !8
  br label %163

158:                                              ; No predecessors!
  br label %159

159:                                              ; preds = %158
  br label %160

160:                                              ; preds = %159
  br label %161

161:                                              ; preds = %160
  br label %162

162:                                              ; preds = %161, %136, %130, %129, %47
  br label %163

163:                                              ; preds = %162, %157, %124
  br label %164

164:                                              ; preds = %163, %11
  %165 = load i32, ptr %3, align 4, !tbaa !8
  call void @llvm.lifetime.end.p0(i64 1, ptr %4) #5
  call void @llvm.lifetime.end.p0(i64 4, ptr %3) #5
  ret i32 %165
}