; Function Attrs: nounwind uwtable
define range(i32 -1, 1) i32 @H5D__layout_set_io_ops(ptr noundef readonly captures(none) %0) local_unnamed_addr #0 {
  %2 = load i8, ptr @H5D_init_g, align 1, !tbaa !3, !range !7, !noundef !8
  %3 = trunc nuw i8 %2 to i1
  %4 = load i8, ptr @H5_libterm_g, align 1, !range !7
  %5 = trunc nuw i8 %4 to i1
  %6 = xor i1 %5, true
  %7 = select i1 %3, i1 true, i1 %6
  br i1 %7, label %8, label %47, !prof !9

8:                                                ; preds = %1
  %9 = getelementptr inbounds nuw i8, ptr %0, i64 48
  %10 = load ptr, ptr %9, align 8, !tbaa !10
  %11 = getelementptr inbounds nuw i8, ptr %10, i64 248
  %12 = load i32, ptr %11, align 8, !tbaa !20
  switch i32 %12, label %43 [
    i32 1, label %13
    i32 2, label %19
    i32 0, label %39
    i32 3, label %41
  ]

13:                                               ; preds = %8
  %14 = getelementptr inbounds nuw i8, ptr %10, i64 232
  %15 = load i64, ptr %14, align 8, !tbaa !46
  %.not = icmp eq i64 %15, 0
  %16 = getelementptr inbounds nuw i8, ptr %10, i64 256
  br i1 %.not, label %18, label %17

17:                                               ; preds = %13
  store ptr @H5D_LOPS_EFL, ptr %16, align 8, !tbaa !47
  br label %47

18:                                               ; preds = %13
  store ptr @H5D_LOPS_CONTIG, ptr %16, align 8, !tbaa !47
  br label %47

19:                                               ; preds = %8
  %20 = getelementptr inbounds nuw i8, ptr %10, i64 256
  store ptr @H5D_LOPS_CHUNK, ptr %20, align 8, !tbaa !47
  %21 = getelementptr inbounds nuw i8, ptr %10, i64 264
  %22 = load i32, ptr %21, align 8, !tbaa !48
  switch i32 %22, label %35 [
    i32 0, label %23
    i32 2, label %25
    i32 1, label %27
    i32 3, label %29
    i32 4, label %31
    i32 5, label %33
  ]

23:                                               ; preds = %19
  %24 = getelementptr inbounds nuw i8, ptr %10, i64 2184
  store ptr @H5D_COPS_BTREE, ptr %24, align 8, !tbaa !48
  br label %47

25:                                               ; preds = %19
  %26 = getelementptr inbounds nuw i8, ptr %10, i64 2184
  store ptr @H5D_COPS_NONE, ptr %26, align 8, !tbaa !48
  br label %47

27:                                               ; preds = %19
  %28 = getelementptr inbounds nuw i8, ptr %10, i64 2184
  store ptr @H5D_COPS_SINGLE, ptr %28, align 8, !tbaa !48
  br label %47

29:                                               ; preds = %19
  %30 = getelementptr inbounds nuw i8, ptr %10, i64 2184
  store ptr @H5D_COPS_FARRAY, ptr %30, align 8, !tbaa !48
  br label %47

31:                                               ; preds = %19
  %32 = getelementptr inbounds nuw i8, ptr %10, i64 2184
  store ptr @H5D_COPS_EARRAY, ptr %32, align 8, !tbaa !48
  br label %47

33:                                               ; preds = %19
  %34 = getelementptr inbounds nuw i8, ptr %10, i64 2184
  store ptr @H5D_COPS_BT2, ptr %34, align 8, !tbaa !48
  br label %47

35:                                               ; preds = %19
  %36 = load i64, ptr @H5E_DATASET_g, align 8, !tbaa !49
  %37 = load i64, ptr @H5E_UNSUPPORTED_g, align 8, !tbaa !49
  %38 = tail call i32 (ptr, ptr, i32, i64, i64, ptr, ...) @H5E_printf_stack(ptr noundef nonnull @.str, ptr noundef nonnull @__func__.H5D__layout_set_io_ops, i32 noundef 124, i64 noundef %36, i64 noundef %37, ptr noundef nonnull @.str.1) #4
  br label %47

39:                                               ; preds = %8
  %40 = getelementptr inbounds nuw i8, ptr %10, i64 256
  store ptr @H5D_LOPS_COMPACT, ptr %40, align 8, !tbaa !47
  br label %47

41:                                               ; preds = %8
  %42 = getelementptr inbounds nuw i8, ptr %10, i64 256
  store ptr @H5D_LOPS_VIRTUAL, ptr %42, align 8, !tbaa !47
  br label %47

43:                                               ; preds = %8
  %44 = load i64, ptr @H5E_DATASET_g, align 8, !tbaa !49
  %45 = load i64, ptr @H5E_UNSUPPORTED_g, align 8, !tbaa !49
  %46 = tail call i32 (ptr, ptr, i32, i64, i64, ptr, ...) @H5E_printf_stack(ptr noundef nonnull @.str, ptr noundef nonnull @__func__.H5D__layout_set_io_ops, i32 noundef 139, i64 noundef %44, i64 noundef %45, ptr noundef nonnull @.str.2) #4
  br label %47

47:                                               ; preds = %35, %43, %23, %25, %27, %29, %31, %33, %17, %18, %41, %39, %1
  %.0 = phi i32 [ -1, %43 ], [ 0, %41 ], [ 0, %39 ], [ -1, %35 ], [ 0, %33 ], [ 0, %31 ], [ 0, %29 ], [ 0, %27 ], [ 0, %25 ], [ 0, %23 ], [ 0, %17 ], [ 0, %18 ], [ 0, %1 ]
  ret i32 %.0
}